    ??0Object@vm@@QEAA@XZ
    ??1Object@vm@@UEAA@XZ
    ?Exec@Object@vm@@UEAA?AW4_ret_t@@PEBD0@Z
    ?CanExec@Object@vm@@UEBAEPEBD0@Z
    ?GetPropA@Object@vm@@UEBA?AW4_ret_t@@PEBDPEAU_value_t@@@Z
    ?SetPropA@Object@vm@@UEAA?AW4_ret_t@@PEBDPEBU_value_t@@@Z
    ??0ViewModel@vm@@QEAA@PEAU_navigator_request_t@@@Z
    ??1ViewModel@vm@@UEAA@XZ
    ?OnWillMount@ViewModel@vm@@UEAA?AW4_ret_t@@PEAU_navigator_request_t@@@Z
    ?OnMount@ViewModel@vm@@UEAA?AW4_ret_t@@XZ
    ?OnWillUnmount@ViewModel@vm@@UEAA?AW4_ret_t@@XZ
    ?OnUnmount@ViewModel@vm@@UEAA?AW4_ret_t@@XZ
    ??0ViewModelArray@vm@@QEAA@PEAU_navigator_request_t@@@Z
    ??1ViewModelArray@vm@@UEAA@XZ
    ?GetSize@ViewModelArray@vm@@UEBAIXZ
    ?Exec@ViewModelArray@vm@@UEAA?AW4_ret_t@@HPEBD@Z
    ?CanExec@ViewModelArray@vm@@UEBAEHPEBD@Z
    ?GetPropA@ViewModelArray@vm@@UEBA?AW4_ret_t@@HPEBDPEAU_value_t@@@Z
    ?SetPropA@ViewModelArray@vm@@UEAA?AW4_ret_t@@HPEBDPEBU_value_t@@@Z
    ?Remove@ViewModelArray@vm@@UEAA?AW4_ret_t@@H@Z
    ?Clear@ViewModelArray@vm@@UEAA?AW4_ret_t@@XZ
    ??0ValueConverter@vm@@QEAA@XZ
    ??1ValueConverter@vm@@UEAA@XZ
    ?ToModel@ValueConverter@vm@@UEAA?AW4_ret_t@@PEBU_value_t@@PEAU4@@Z
    ?ToView@ValueConverter@vm@@UEAA?AW4_ret_t@@PEBU_value_t@@PEAU4@@Z
    ??0ValueValidator@vm@@QEAA@XZ
    ??1ValueValidator@vm@@UEAA@XZ
    ?IsValid@ValueValidator@vm@@UEAAEPEBU_value_t@@PEAU_str_t@@@Z
    ?Fix@ValueValidator@vm@@UEAA?AW4_ret_t@@PEAU_value_t@@@Z
