    ??0Object@vm@@QAE@XZ
    ??1Object@vm@@UAE@XZ
    ?Exec@Object@vm@@UAE?AW4_ret_t@@PBD0@Z
    ?CanExec@Object@vm@@UBEEPBD0@Z
    ?GetPropA@Object@vm@@UBE?AW4_ret_t@@PBDPAU_value_t@@@Z
    ?SetPropA@Object@vm@@UAE?AW4_ret_t@@PBDPBU_value_t@@@Z
    ??0ViewModel@vm@@QAE@PAU_navigator_request_t@@@Z
    ??1ViewModel@vm@@UAE@XZ
    ?OnWillMount@ViewModel@vm@@UAE?AW4_ret_t@@PAU_navigator_request_t@@@Z
    ?OnMount@ViewModel@vm@@UAE?AW4_ret_t@@XZ
    ?OnWillUnmount@ViewModel@vm@@UAE?AW4_ret_t@@XZ
    ?OnUnmount@ViewModel@vm@@UAE?AW4_ret_t@@XZ
    ??0ViewModelArray@vm@@QAE@PAU_navigator_request_t@@@Z
    ??1ViewModelArray@vm@@UAE@XZ
    ?GetSize@ViewModelArray@vm@@UBEIXZ
    ?Exec@ViewModelArray@vm@@UAE?AW4_ret_t@@HPBD@Z
    ?CanExec@ViewModelArray@vm@@UBEEHPBD@Z
    ?GetPropA@ViewModelArray@vm@@UBE?AW4_ret_t@@HPBDPAU_value_t@@@Z
    ?SetPropA@ViewModelArray@vm@@UAE?AW4_ret_t@@HPBDPBU_value_t@@@Z
    ?Remove@ViewModelArray@vm@@UAE?AW4_ret_t@@H@Z
    ?Clear@ViewModelArray@vm@@UAE?AW4_ret_t@@XZ
    ??0ValueConverter@vm@@QAE@XZ
    ??1ValueConverter@vm@@UAE@XZ
    ?ToModel@ValueConverter@vm@@UAE?AW4_ret_t@@PBU_value_t@@PAU4@@Z
    ?ToView@ValueConverter@vm@@UAE?AW4_ret_t@@PBU_value_t@@PAU4@@Z
    ??0ValueValidator@vm@@QAE@XZ
    ??1ValueValidator@vm@@UAE@XZ
    ?IsValid@ValueValidator@vm@@UAEEPBU_value_t@@PAU_str_t@@@Z
    ?Fix@ValueValidator@vm@@UAE?AW4_ret_t@@PAU_value_t@@@Z
